; Function Attrs: nounwind uwtable
define void @Saig_ManBmcDfs_rec(ptr noundef %0, ptr noundef %1, ptr noundef %2) local_unnamed_addr #0 {
  %4 = getelementptr i8, ptr %0, i64 312
  %.val16 = load i32, ptr %4, align 8, !tbaa !55
  %5 = getelementptr i8, ptr %1, i64 32
  %.val17 = load i32, ptr %5, align 8, !tbaa !56
  %.not = icmp eq i32 %.val17, %.val16
  br i1 %.not, label %52, label %6

6:                                                ; preds = %3
  store i32 %.val16, ptr %5, align 8, !tbaa !56
  %7 = getelementptr i8, ptr %1, i64 24
  %.val14 = load i64, ptr %7, align 8
  %8 = trunc i64 %.val14 to i32
  %9 = and i32 %8, 7
  %10 = add nsw i32 %9, -7
  %narrow.i = icmp ult i32 %10, -2
  br i1 %narrow.i, label %20, label %11

11:                                               ; preds = %6
  %12 = getelementptr i8, ptr %1, i64 8
  %.val = load ptr, ptr %12, align 8, !tbaa !26
  %13 = ptrtoint ptr %.val to i64
  %14 = and i64 %13, -2
  %15 = inttoptr i64 %14 to ptr
  tail call void @Saig_ManBmcDfs_rec(ptr noundef nonnull %0, ptr noundef %15, ptr noundef %2)
  %16 = getelementptr i8, ptr %1, i64 16
  %.val15 = load ptr, ptr %16, align 8, !tbaa !39
  %17 = ptrtoint ptr %.val15 to i64
  %18 = and i64 %17, -2
  %19 = inttoptr i64 %18 to ptr
  tail call void @Saig_ManBmcDfs_rec(ptr noundef nonnull %0, ptr noundef %19, ptr noundef %2)
  br label %20

20:                                               ; preds = %11, %6
  %21 = getelementptr inbounds nuw i8, ptr %2, i64 4
  %22 = load i32, ptr %21, align 4, !tbaa !32
  %23 = load i32, ptr %2, align 8, !tbaa !42
  %24 = icmp eq i32 %22, %23
  br i1 %24, label %25, label %.Vec_PtrGrow.exit11_crit_edge.i

.Vec_PtrGrow.exit11_crit_edge.i:                  ; preds = %20
  %.phi.trans.insert.i = getelementptr inbounds nuw i8, ptr %2, i64 8
  %.pre.i = load ptr, ptr %.phi.trans.insert.i, align 8, !tbaa !23
  br label %Vec_PtrPush.exit

25:                                               ; preds = %20
  %26 = icmp slt i32 %22, 16
  br i1 %26, label %27, label %35

27:                                               ; preds = %25
  %28 = getelementptr inbounds nuw i8, ptr %2, i64 8
  %29 = load ptr, ptr %28, align 8, !tbaa !23
  %.not9.i.i = icmp eq ptr %29, null
  br i1 %.not9.i.i, label %32, label %30

30:                                               ; preds = %27
  %31 = tail call dereferenceable_or_null(128) ptr @realloc(ptr noundef nonnull %29, i64 noundef 128) #28
  br label %Vec_PtrGrow.exit.i

32:                                               ; preds = %27
  %33 = tail call noalias dereferenceable_or_null(128) ptr @malloc(i64 noundef 128) #27
  br label %Vec_PtrGrow.exit.i

Vec_PtrGrow.exit.i:                               ; preds = %32, %30
  %34 = phi ptr [ %31, %30 ], [ %33, %32 ]
  store ptr %34, ptr %28, align 8, !tbaa !23
  store i32 16, ptr %2, align 8, !tbaa !42
  br label %Vec_PtrPush.exit

35:                                               ; preds = %25
  %36 = shl nuw nsw i32 %22, 1
  %37 = getelementptr inbounds nuw i8, ptr %2, i64 8
  %38 = load ptr, ptr %37, align 8, !tbaa !23
  %.not9.i10.i = icmp eq ptr %38, null
  %39 = zext nneg i32 %36 to i64
  %40 = shl nuw nsw i64 %39, 3
  br i1 %.not9.i10.i, label %43, label %41

41:                                               ; preds = %35
  %42 = tail call ptr @realloc(ptr noundef nonnull %38, i64 noundef %40) #28
  br label %45

43:                                               ; preds = %35
  %44 = tail call noalias ptr @malloc(i64 noundef %40) #27
  br label %45

45:                                               ; preds = %43, %41
  %46 = phi ptr [ %42, %41 ], [ %44, %43 ]
  store ptr %46, ptr %37, align 8, !tbaa !23
  store i32 %36, ptr %2, align 8, !tbaa !42
  br label %Vec_PtrPush.exit

Vec_PtrPush.exit:                                 ; preds = %.Vec_PtrGrow.exit11_crit_edge.i, %Vec_PtrGrow.exit.i, %45
  %47 = phi ptr [ %.pre.i, %.Vec_PtrGrow.exit11_crit_edge.i ], [ %46, %45 ], [ %34, %Vec_PtrGrow.exit.i ]
  %48 = load i32, ptr %21, align 4, !tbaa !32
  %49 = add nsw i32 %48, 1
  store i32 %49, ptr %21, align 4, !tbaa !32
  %50 = sext i32 %48 to i64
  %51 = getelementptr inbounds ptr, ptr %47, i64 %50
  store ptr %1, ptr %51, align 8, !tbaa !25
  br label %52

52:                                               ; preds = %3, %Vec_PtrPush.exit
  ret void
}